; Function Attrs: nounwind uwtable
define dso_local i64 @pg_get_partkeydef(ptr noundef captures(none) %0) local_unnamed_addr #0 {
  %2 = getelementptr inbounds nuw i8, ptr %0, i64 32
  %3 = load i64, ptr %2, align 8
  %4 = trunc i64 %3 to i32
  %5 = tail call fastcc ptr @pg_get_partkeydef_worker(i32 noundef %4, i32 noundef 2, i1 noundef zeroext false, i1 noundef zeroext true)
  %6 = icmp eq ptr %5, null
  br i1 %6, label %7, label %9

7:                                                ; preds = %1
  %8 = getelementptr inbounds nuw i8, ptr %0, i64 28
  store i8 1, ptr %8, align 4
  br label %12

9:                                                ; preds = %1
  %10 = tail call ptr @cstring_to_text(ptr noundef nonnull %5) #11
  tail call void @pfree(ptr noundef nonnull %5) #11
  %11 = ptrtoint ptr %10 to i64
  br label %12

12:                                               ; preds = %9, %7
  %.0 = phi i64 [ 0, %7 ], [ %11, %9 ]
  ret i64 %.0
}